; Function Attrs: mustprogress uwtable
define void @_ZN6icu_7522RuleBasedBreakIterator7setTextERKNS_13UnicodeStringE(ptr noundef nonnull align 8 dereferenceable(745) %this, ptr noundef nonnull align 8 dereferenceable(64) %newText) unnamed_addr #1 align 2 personality ptr @__gxx_personality_v0 {
entry:
  %status = alloca i32, align 4
  %agg.tmp = alloca %"class.icu_75::ConstChar16Ptr", align 8
  store i32 0, ptr %status, align 4
  %fBreakCache = getelementptr inbounds i8, ptr %this, i64 648
  %0 = load ptr, ptr %fBreakCache, align 8
  tail call void @_ZN6icu_7522RuleBasedBreakIterator10BreakCache5resetEii(ptr noundef nonnull align 8 dereferenceable(832) %0, i32 noundef 0, i32 noundef 0)
  %fDictionaryCache = getelementptr inbounds i8, ptr %this, i64 656
  %1 = load ptr, ptr %fDictionaryCache, align 8
  tail call void @_ZN6icu_7522RuleBasedBreakIterator15DictionaryCache5resetEv(ptr noundef nonnull align 8 dereferenceable(60) %1)
  %fText = getelementptr inbounds i8, ptr %this, i64 480
  %call = call ptr @utext_openConstUnicodeString_75(ptr noundef nonnull %fText, ptr noundef nonnull %newText, ptr noundef nonnull %status)
  %fSCharIter = getelementptr inbounds i8, ptr %this, i64 696
  %fUnion.i = getelementptr inbounds i8, ptr %newText, i64 8
  %2 = load i16, ptr %fUnion.i, align 8
  %conv1.i = zext i16 %2 to i32
  %and.i = and i32 %conv1.i, 17
  %tobool.not.i = icmp eq i32 %and.i, 0
  br i1 %tobool.not.i, label %if.else.i, label %invoke.cont

if.else.i:                                        ; preds = %entry
  %and5.i = and i32 %conv1.i, 2
  %tobool6.not.i = icmp eq i32 %and5.i, 0
  br i1 %tobool6.not.i, label %if.else9.i, label %if.then7.i

if.then7.i:                                       ; preds = %if.else.i
  %fBuffer.i = getelementptr inbounds i8, ptr %newText, i64 10
  br label %invoke.cont

if.else9.i:                                       ; preds = %if.else.i
  %fArray.i = getelementptr inbounds i8, ptr %newText, i64 24
  %3 = load ptr, ptr %fArray.i, align 8
  br label %invoke.cont

invoke.cont:                                      ; preds = %if.else9.i, %if.then7.i, %entry
  %retval.0.i = phi ptr [ %fBuffer.i, %if.then7.i ], [ %3, %if.else9.i ], [ null, %entry ]
  store ptr %retval.0.i, ptr %agg.tmp, align 8
  %cmp.i.i = icmp slt i16 %2, 0
  %4 = ashr i16 %2, 5
  %shr.i.i = sext i16 %4 to i32
  %fLength.i = getelementptr inbounds i8, ptr %newText, i64 12
  %5 = load i32, ptr %fLength.i, align 4
  %cond.i = select i1 %cmp.i.i, i32 %5, i32 %shr.i.i
  invoke void @_ZN6icu_7522UCharCharacterIterator7setTextENS_14ConstChar16PtrEi(ptr noundef nonnull align 8 dereferenceable(32) %fSCharIter, ptr noundef nonnull %agg.tmp, i32 noundef %cond.i)
          to label %invoke.cont4 unwind label %lpad

invoke.cont4:                                     ; preds = %invoke.cont
  %6 = load ptr, ptr %agg.tmp, align 8
  call void asm sideeffect "", "rm,~{memory},~{dirflag},~{fpsr},~{flags}"(ptr %6) #15, !srcloc !4
  %fCharIter = getelementptr inbounds i8, ptr %this, i64 688
  %7 = load ptr, ptr %fCharIter, align 8
  %cmp.not = icmp eq ptr %7, %fSCharIter
  %isnull = icmp eq ptr %7, null
  %or.cond = or i1 %cmp.not, %isnull
  br i1 %or.cond, label %if.end, label %delete.notnull

delete.notnull:                                   ; preds = %invoke.cont4
  %vtable = load ptr, ptr %7, align 8
  %vfn = getelementptr inbounds i8, ptr %vtable, i64 8
  %8 = load ptr, ptr %vfn, align 8
  call void %8(ptr noundef nonnull align 8 dereferenceable(24) %7) #15
  br label %if.end

lpad:                                             ; preds = %invoke.cont
  %9 = landingpad { ptr, i32 }
          cleanup
  %10 = load ptr, ptr %agg.tmp, align 8
  call void asm sideeffect "", "rm,~{memory},~{dirflag},~{fpsr},~{flags}"(ptr %10) #15, !srcloc !4
  resume { ptr, i32 } %9

if.end:                                           ; preds = %delete.notnull, %invoke.cont4
  store ptr %fSCharIter, ptr %fCharIter, align 8
  %vtable9 = load ptr, ptr %this, align 8
  %vfn10 = getelementptr inbounds i8, ptr %vtable9, i64 80
  %11 = load ptr, ptr %vfn10, align 8
  %call11 = call noundef i32 %11(ptr noundef nonnull align 8 dereferenceable(745) %this)
  ret void
}